target datalayout = "e-m:e-p270:32:32-p271:32:32-p272:64:64-i64:64-i128:128-f80:128-n8:16:32:64-S128"
target triple = "x86_64-pc-linux-gnu"

%struct.Py_complex = type { double, double }

; Function Attrs: nounwind uwtable
define internal ptr @cmath_isnan_impl(ptr noundef %0, double %1, double %2) #0 {
  %4 = alloca %struct.Py_complex, align 8
  %5 = alloca ptr, align 8
  %6 = getelementptr inbounds nuw { double, double }, ptr %4, i32 0, i32 0
  store double %1, ptr %6, align 8
  %7 = getelementptr inbounds nuw { double, double }, ptr %4, i32 0, i32 1
  store double %2, ptr %7, align 8
  store ptr %0, ptr %5, align 8, !tbaa !3
  %8 = getelementptr inbounds nuw %struct.Py_complex, ptr %4, i32 0, i32 0
  %9 = load double, ptr %8, align 8, !tbaa !17
  %10 = call i1 @llvm.is.fpclass.f64(double %9, i32 3)
  br i1 %10, label %15, label %11

11:                                               ; preds = %3
  %12 = getelementptr inbounds nuw %struct.Py_complex, ptr %4, i32 0, i32 1
  %13 = load double, ptr %12, align 8, !tbaa !19
  %14 = call i1 @llvm.is.fpclass.f64(double %13, i32 3)
  br label %15

15:                                               ; preds = %11, %3
  %16 = phi i1 [ true, %3 ], [ %14, %11 ]
  %17 = zext i1 %16 to i32
  %18 = sext i32 %17 to i64
  %19 = call ptr @PyBool_FromLong(i64 noundef %18)
  ret ptr %19
}

; Function Attrs: nounwind uwtable
define internal ptr @cmath_isnan(ptr noundef %0, ptr noundef %1) #0 {
  %3 = alloca ptr, align 8
  %4 = alloca ptr, align 8
  %5 = alloca ptr, align 8
  %6 = alloca %struct.Py_complex, align 8
  %7 = alloca %struct.Py_complex, align 8
  store ptr %0, ptr %3, align 8, !tbaa !3
  store ptr %1, ptr %4, align 8, !tbaa !3
  call void @llvm.lifetime.start.p0(i64 8, ptr %5) #8
  store ptr null, ptr %5, align 8, !tbaa !3
  call void @llvm.lifetime.start.p0(i64 16, ptr %6) #8
  call void @llvm.lifetime.start.p0(i64 16, ptr %7) #8
  %8 = load ptr, ptr %4, align 8, !tbaa !3
  %9 = call { double, double } @PyComplex_AsCComplex(ptr noundef %8)
  %10 = getelementptr inbounds nuw { double, double }, ptr %7, i32 0, i32 0
  %11 = extractvalue { double, double } %9, 0
  store double %11, ptr %10, align 8
  %12 = getelementptr inbounds nuw { double, double }, ptr %7, i32 0, i32 1
  %13 = extractvalue { double, double } %9, 1
  store double %13, ptr %12, align 8
  call void @llvm.memcpy.p0.p0.i64(ptr align 8 %6, ptr align 8 %7, i64 16, i1 false), !tbaa.struct !8
  call void @llvm.lifetime.end.p0(i64 16, ptr %7) #8
  %14 = call ptr @PyErr_Occurred()
  %15 = icmp ne ptr %14, null
  br i1 %15, label %16, label %17

16:                                               ; preds = %2
  br label %24

17:                                               ; preds = %2
  %18 = load ptr, ptr %3, align 8, !tbaa !3
  %19 = getelementptr inbounds nuw { double, double }, ptr %6, i32 0, i32 0
  %20 = load double, ptr %19, align 8
  %21 = getelementptr inbounds nuw { double, double }, ptr %6, i32 0, i32 1
  %22 = load double, ptr %21, align 8
  %23 = call ptr @cmath_isnan_impl(ptr noundef %18, double %20, double %22)
  store ptr %23, ptr %5, align 8, !tbaa !3
  br label %24

24:                                               ; preds = %17, %16
  %25 = load ptr, ptr %5, align 8, !tbaa !3
  call void @llvm.lifetime.end.p0(i64 16, ptr %6) #8
  call void @llvm.lifetime.end.p0(i64 8, ptr %5) #8
  ret ptr %25
}