; Function Attrs: nounwind uwtable
define internal ptr @cmath_isnan(ptr readnone captures(none) %0, ptr noundef %1) #0 {
  %3 = tail call { double, double } @PyComplex_AsCComplex(ptr noundef %1) #11
  %4 = tail call ptr @PyErr_Occurred() #11
  %.not = icmp eq ptr %4, null
  br i1 %.not, label %5, label %13

5:                                                ; preds = %2
  %6 = extractvalue { double, double } %3, 1
  %7 = extractvalue { double, double } %3, 0
  %8 = fcmp uno double %7, 0.000000e+00
  %9 = fcmp uno double %6, 0.000000e+00
  %10 = select i1 %8, i1 true, i1 %9
  %11 = zext i1 %10 to i64
  %12 = tail call ptr @PyBool_FromLong(i64 noundef %11) #11
  br label %13

13:                                               ; preds = %2, %5
  %.0 = phi ptr [ null, %2 ], [ %12, %5 ]
  ret ptr %.0
}